; Function Attrs: mustprogress uwtable
define void @_ZN9grpc_core9XdsClient12ChannelState21OnConnectivityFailureEN4absl12lts_202308026StatusE(ptr noundef nonnull align 8 dereferenceable(120) %this, ptr nocapture noundef %status) local_unnamed_addr #3 align 2 personality ptr @__gxx_personality_v0 {
entry:
  %agg.tmp = alloca %"class.absl::lts_20230802::Status", align 8
  %xds_client_ = getelementptr inbounds i8, ptr %this, i64 16
  %0 = load ptr, ptr %xds_client_, align 8
  %mu_ = getelementptr inbounds i8, ptr %0, i64 168
  tail call void @_ZN4absl12lts_202308025Mutex4LockEv(ptr noundef nonnull align 8 dereferenceable(8) %mu_)
  %1 = load i64, ptr %status, align 8
  store i64 %1, ptr %agg.tmp, align 8
  store i64 54, ptr %status, align 8
  invoke void @_ZN9grpc_core9XdsClient12ChannelState22SetChannelStatusLockedEN4absl12lts_202308026StatusE(ptr noundef nonnull align 8 dereferenceable(120) %this, ptr noundef nonnull %agg.tmp)
          to label %invoke.cont unwind label %lpad

invoke.cont:                                      ; preds = %entry
  %2 = load i64, ptr %agg.tmp, align 8
  %and.i.i.i = and i64 %2, 1
  %cmp.i.i.i = icmp eq i64 %and.i.i.i, 0
  br i1 %cmp.i.i.i, label %_ZN4absl12lts_202308026StatusD2Ev.exit, label %if.then.i.i

if.then.i.i:                                      ; preds = %invoke.cont
  invoke void @_ZN4absl12lts_202308026Status15UnrefNonInlinedEm(i64 noundef %2)
          to label %_ZN4absl12lts_202308026StatusD2Ev.exit unwind label %terminate.lpad.i

terminate.lpad.i:                                 ; preds = %if.then.i.i
  %3 = landingpad { ptr, i32 }
          catch ptr null
  %4 = extractvalue { ptr, i32 } %3, 0
  call void @__clang_call_terminate(ptr %4) #27
  unreachable

_ZN4absl12lts_202308026StatusD2Ev.exit:           ; preds = %invoke.cont, %if.then.i.i
  invoke void @_ZN4absl12lts_202308025Mutex6UnlockEv(ptr noundef nonnull align 8 dereferenceable(8) %mu_)
          to label %_ZN4absl12lts_202308029MutexLockD2Ev.exit unwind label %terminate.lpad.i1

terminate.lpad.i1:                                ; preds = %_ZN4absl12lts_202308026StatusD2Ev.exit
  %5 = landingpad { ptr, i32 }
          catch ptr null
  %6 = extractvalue { ptr, i32 } %5, 0
  call void @__clang_call_terminate(ptr %6) #27
  unreachable

_ZN4absl12lts_202308029MutexLockD2Ev.exit:        ; preds = %_ZN4absl12lts_202308026StatusD2Ev.exit
  %7 = load ptr, ptr %xds_client_, align 8
  %work_serializer_ = getelementptr inbounds i8, ptr %7, i64 144
  call void @_ZN9grpc_core14WorkSerializer10DrainQueueEv(ptr noundef nonnull align 8 dereferenceable(8) %work_serializer_)
  ret void

lpad:                                             ; preds = %entry
  %8 = landingpad { ptr, i32 }
          cleanup
  call void @_ZN4absl12lts_202308026StatusD2Ev(ptr noundef nonnull align 8 dereferenceable(8) %agg.tmp) #25
  invoke void @_ZN4absl12lts_202308025Mutex6UnlockEv(ptr noundef nonnull align 8 dereferenceable(8) %mu_)
          to label %_ZN4absl12lts_202308029MutexLockD2Ev.exit3 unwind label %terminate.lpad.i2

terminate.lpad.i2:                                ; preds = %lpad
  %9 = landingpad { ptr, i32 }
          catch ptr null
  %10 = extractvalue { ptr, i32 } %9, 0
  call void @__clang_call_terminate(ptr %10) #27
  unreachable

_ZN4absl12lts_202308029MutexLockD2Ev.exit3:       ; preds = %lpad
  resume { ptr, i32 } %8
}